Certificate:
    Data:
        Version: 3 (0x2)
        Serial Number: 162 (0xa2)
        Signature Algorithm: sha1WithRSAEncryption
        Issuer: C=US, ST=MO, L=St Louis, O=Washington Univ, OU=MIR, CN=Steve Moore/emailAddress=smoore@wustl.edu
        Validity
            Not Before: Oct 28 13:23:22 2009 GMT
            Not After : Oct 28 13:23:22 2010 GMT
        Subject: C=US, ST=Illinois, L=Chicago, O=IHE International, OU=Connectathon, CN=gazelle-green.wustl.edu
        Subject Public Key Info:
            Public Key Algorithm: rsaEncryption
            RSA Public Key: (1024 bit)
                Modulus (1024 bit):
                    00:d8:50:9c:89:e1:af:ab:f9:26:99:d9:38:fa:cf:
                    c9:b4:24:ad:7f:0c:2e:c3:12:89:44:22:cf:a0:04:
                    f8:e8:be:f9:54:13:1b:b4:a7:d3:88:d2:21:44:3c:
                    27:2b:ab:6f:45:1b:d7:ae:e0:fa:32:7d:49:91:99:
                    94:b6:9e:fe:f8:7b:83:15:7c:15:d8:d0:81:26:26:
                    5d:1e:10:ef:8c:a2:98:c2:b3:4c:87:87:04:a8:9a:
                    79:21:6b:e7:d5:d5:35:18:1d:32:0e:a1:25:11:1c:
                    90:73:64:4a:62:e1:27:f7:8d:2e:28:56:11:cc:ea:
                    98:bf:f5:76:91:30:74:95:33
                Exponent: 65537 (0x10001)
        X509v3 extensions:
            X509v3 Basic Constraints: 
                CA:FALSE
            Netscape Comment: 
                OpenSSL Generated Certificate
            X509v3 Subject Key Identifier: 
                A6:6D:6C:FB:4E:56:4C:A9:27:2A:41:B2:49:A7:30:12:B5:F0:B7:55
            X509v3 Authority Key Identifier: 
                keyid:23:3C:87:C7:2B:38:F1:6D:04:39:85:B5:76:A7:62:49:EB:09:EF:3C

    Signature Algorithm: sha1WithRSAEncryption
        8b:f5:6b:17:2c:e7:15:32:ce:59:6d:a4:ff:36:0f:e0:9f:45:
        b7:16:8f:46:d7:db:08:00:d3:ed:19:9d:7e:39:c4:9c:a9:5f:
        c2:6a:38:5b:a1:9e:ed:81:57:d0:e1:3c:36:36:e9:4a:70:5d:
        e4:93:00:b6:3d:ce:f1:1b:f2:33:6e:b0:b5:30:2d:fe:25:6e:
        e6:f7:fe:d5:b4:c4:40:b8:28:c5:d3:64:67:74:f2:ea:c7:c7:
        07:97:84:de:63:a5:c5:9c:5a:df:90:d4:13:fe:a0:5a:7b:61:
        7c:31:52:44:56:89:12:c2:12:32:5d:ba:c7:dc:64:f0:c1:16:
        34:e4
-----BEGIN CERTIFICATE-----
MIIDBzCCAnCgAwIBAgICAKIwDQYJKoZIhvcNAQEFBQAwgYwxCzAJBgNVBAYTAlVT
MQswCQYDVQQIEwJNTzERMA8GA1UEBxMIU3QgTG91aXMxGDAWBgNVBAoTD1dhc2hp
bmd0b24gVW5pdjEMMAoGA1UECxMDTUlSMRQwEgYDVQQDEwtTdGV2ZSBNb29yZTEf
MB0GCSqGSIb3DQEJARYQc21vb3JlQHd1c3RsLmVkdTAeFw0wOTEwMjgxMzIzMjJa
Fw0xMDEwMjgxMzIzMjJaMIGHMQswCQYDVQQGEwJVUzERMA8GA1UECBMISWxsaW5v
aXMxEDAOBgNVBAcTB0NoaWNhZ28xGjAYBgNVBAoTEUlIRSBJbnRlcm5hdGlvbmFs
MRUwEwYDVQQLEwxDb25uZWN0YXRob24xIDAeBgNVBAMTF2dhemVsbGUtZ3JlZW4u
d3VzdGwuZWR1MIGfMA0GCSqGSIb3DQEBAQUAA4GNADCBiQKBgQDYUJyJ4a+r+SaZ
2Tj6z8m0JK1/DC7DEolEIs+gBPjovvlUExu0p9OI0iFEPCcrq29FG9eu4PoyfUmR
mZS2nv74e4MVfBXY0IEmJl0eEO+MopjCs0yHhwSomnkha+fV1TUYHTIOoSURHJBz
ZEpi4Sf3jS4oVhHM6pi/9XaRMHSVMwIDAQABo3sweTAJBgNVHRMEAjAAMCwGCWCG
SAGG+EIBDQQfFh1PcGVuU1NMIEdlbmVyYXRlZCBDZXJ0aWZpY2F0ZTAdBgNVHQ4E
FgQUpm1s+05WTKknKkGySacwErXwt1UwHwYDVR0jBBgwFoAUIzyHxys48W0EOYW1
dqdiSesJ7zwwDQYJKoZIhvcNAQEFBQADgYEAi/VrFyznFTLOWW2k/zYP4J9FtxaP
RtfbCADT7RmdfjnEnKlfwmo4W6Ge7YFX0OE8NjbpSnBd5JMAtj3O8RvyM26wtTAt
/iVu5vf+1bTEQLgoxdNkZ3Ty6sfHB5eE3mOlxZxa35DUE/6gWnthfDFSRFaJEsIS
Ml26x9xk8MEWNOQ=
-----END CERTIFICATE-----
